ctf.gpr (0.0030s) TYPE_LOADSEG 
	      header (segments: first=0, last=2, table size=3)
	#000  CODE   size 00001190  alloc size 00001190  file header @00000020  data @00000028  
		   reloc  absreloc32 #3
			To Segment #0:   33 entries
			To Segment #1:   85 entries
			To Segment #2:   45 entries
		  symbol  #29
			00000068  __exit                            
			00001038  _strcat                           
			000000ca  _geta4                            
			00000ef0  _bzero                            
			00000430  _decrypt_flag__FPc                
			00001190  __etext                           
			00000e94  _rand                             
			00000348  _retry_flag__Fv                   
			00000ed4  ___umodsi3                        
			00000ec8  _srand                            
			00000e74  ___divsi3                         
			00000e74  _ldiv                             
			00000bd4  ___initcommandline                
			00001128  ___main                           
			00000104  _start_timer__FP11timerequesti    
			00000258  _check_flag__Fv                   
			00000182  _set_text__FPCc                   
			000010b8  ___initlibraries                  
			00000f58  _bcopy                            
			000010f8  ___exitlibraries                  
			00000e84  _strcpy                           
			00000000  __stext                           
			00000e68  ___modsi3                         
			00000ee0  ___udivsi3                        
			00000e74  _div                              
			00000de0  ___exitcommandline                
			0000104c  ___mulsi3                         
			000004de  _main                             
			00001134  ___request                        

				__stext:
00000000	23c8 0000 009c      	move.l  A0, $9c.l              ; absreloc32: #002 HUNK_BSS: ___commandline
00000006	23c0 0000 0090      	move.l  D0, $90.l              ; absreloc32: #002 HUNK_BSS: ___commandlen
0000000c	23cf 0000 0098      	move.l  A7, $98.l              ; absreloc32: #002 HUNK_BSS: ___SaveSP
00000012	2c78 0004           	movea.l $4.w, A6               
00000016	23ce 0000 0094      	move.l  A6, $94.l              ; absreloc32: #002 HUNK_BSS: _SysBase
0000001c	93c9                	suba.l  A1, A1                 
0000001e	4eae feda           	jsr     (-$126,A6)             
00000022	2640                	movea.l D0, A3                 
00000024	4aab 00ac           	tst.l   ($ac,A3)               
00000028	6600 0018           	bne     $42                    
0000002c	41eb 005c           	lea     ($5c,A3), A0           
00000030	4eae fe80           	jsr     (-$180,A6)             
00000034	41eb 005c           	lea     ($5c,A3), A0           
00000038	4eae fe8c           	jsr     (-$174,A6)             
0000003c	23c0 0000 0084      	move.l  D0, $84.l              ; absreloc32: #002 HUNK_BSS: __WBenchMsg
00000042	45f9 0000 0038      	lea     $38.l, A2              ; absreloc32: #001 HUNK_DATA: 00000038
00000048	74ff                	moveq   #-$1, D2               
0000004a	614c                	bsr     $98                    
0000004c	2f39 0000 00a0      	move.l  $a0.l, -(A7)           ; absreloc32: #002 HUNK_BSS: ___env
00000052	2f39 0000 008c      	move.l  $8c.l, -(A7)           ; absreloc32: #002 HUNK_BSS: ___argv
00000058	2f39 0000 00a4      	move.l  $a4.l, -(A7)           ; absreloc32: #002 HUNK_BSS: ___argc
0000005e	4eb9 0000 04de      	jsr     $4de.l                 ; absreloc32: self: _main
00000064	2f40 0004           	move.l  D0, ($4,A7)            
				__exit:
00000068	45f9 0000 0020      	lea     $20.l, A2              ; absreloc32: #001 HUNK_DATA: 00000020
0000006e	7400                	moveq   #$0, D2                
00000070	6126                	bsr     $98                    
00000072	2c79 0000 0094      	movea.l $94.l, A6              ; absreloc32: #002 HUNK_BSS: _SysBase
00000078	2439 0000 0084      	move.l  $84.l, D2              ; absreloc32: #002 HUNK_BSS: __WBenchMsg
0000007e	6700 000c           	beq     $8c                    
00000082	4eae ff7c           	jsr     (-$84,A6)              
00000086	2242                	movea.l D2, A1                 
00000088	4eae fe86           	jsr     (-$17a,A6)             
0000008c	202f 0004           	move.l  ($4,A7), D0            
00000090	2e79 0000 0098      	movea.l $98.l, A7              ; absreloc32: #002 HUNK_BSS: ___SaveSP
00000096	4e75                	rts                            
00000098	4bf9 0000 0000      	lea     $0.l, A5               ; absreloc32: #002 HUNK_BSS: __bss_start
0000009e	264a                	movea.l A2, A3                 
000000a0	7600                	moveq   #$0, D3                
000000a2	601a                	bra     $be                    
000000a4	281b                	move.l  (A3)+, D4              
000000a6	2a15                	move.l  (A5), D5               
000000a8	ba84                	cmp.l   D4, D5                 
000000aa	6604                	bne     $b0                    
000000ac	2040                	movea.l D0, A0                 
000000ae	4e90                	jsr     (A0)                   
000000b0	b584                	eor.l   D2, D4                 
000000b2	b585                	eor.l   D2, D5                 
000000b4	b885                	cmp.l   D5, D4                 
000000b6	6406                	bcc     $be                    
000000b8	b883                	cmp.l   D3, D4                 
000000ba	6302                	bls     $be                    
000000bc	2604                	move.l  D4, D3                 
000000be	201b                	move.l  (A3)+, D0              
000000c0	66e2                	bne     $a4                    
000000c2	b583                	eor.l   D2, D3                 
000000c4	2a83                	move.l  D3, (A5)               
000000c6	b682                	cmp.l   D2, D3                 
000000c8	66ce                	bne     $98                    
				_geta4:
000000ca	4e75                	rts                            
000000cc	746f                	moveq   #$6f, D2               
000000ce	7061                	moveq   #$61, D0               
000000d0	7a2e                	moveq   #$2e, D5               
000000d2	666f                	bne     $143                   
000000d4	6e74                	bgt     $14a                   
000000d6	0043 616c           	ori.w   #$616c, D3             
000000da	6375                	bls     $151                   
000000dc	6c61                	bge     $13f                   
000000de	7465                	moveq   #$65, D2               
000000e0	2074 6865           	movea.l ($65,A4,D6.l), A0      
000000e4	2066                	movea.l -(A6), A0              
000000e6	6c61                	bge     $149                   
000000e8	6700 3c46           	beq     $3d30                  
000000ec	6c61                	bge     $14f                   
000000ee	6720                	beq     $110                   
000000f0	7769                	dc.w $7769; ILLEGAL            
000000f2	6c6c                	bge     $160                   
000000f4	2073 686f           	movea.l ($6f,A3,D6.l), A0      
000000f8	7720                	dc.w $7720; ILLEGAL            
000000fa	7570                	dc.w $7570; ILLEGAL            
000000fc	2068 6572           	movea.l ($6572,A0), A0         
00000100	653e                	bcs     $140                   
00000102	0000 4e55           	ori.b   #$55, D0               
00000106	fffc                	dc.w    $fffc; opcode 1111     
00000108	48e7 3022           	movem.l D2-D3/A2/A6, -(A7)     
0000010c	206d 0008           	movea.l ($8,A5), A0            
00000110	317c 0009 001c      	move.w  #$9, ($1c,A0)          
00000116	246d 0008           	movea.l ($8,A5), A2            
0000011a	202d 000c           	move.l  ($c,A5), D0            
0000011e	4878 03e8           	pea     $3e8.w                 
00000122	2f00                	move.l  D0, -(A7)              
00000124	4eb9 0000 0e74      	jsr     $e74.l                 ; absreloc32: self: _div
0000012a	508f                	addq.l  #8, A7                 
0000012c	2540 0020           	move.l  D0, ($20,A2)           
00000130	246d 0008           	movea.l ($8,A5), A2            
00000134	202d 000c           	move.l  ($c,A5), D0            
00000138	4878 03e8           	pea     $3e8.w                 
0000013c	2f00                	move.l  D0, -(A7)              
0000013e	4eb9 0000 0e68      	jsr     $e68.l                 ; absreloc32: self: ___modsi3
00000144	508f                	addq.l  #8, A7                 
00000146	2600                	move.l  D0, D3                 
00000148	2203                	move.l  D3, D1                 
0000014a	eb89                	lsl.l   #5, D1                 
0000014c	9280                	sub.l   D0, D1                 
0000014e	2601                	move.l  D1, D3                 
00000150	e58b                	lsl.l   #2, D3                 
00000152	d680                	add.l   D0, D3                 
00000154	2003                	move.l  D3, D0                 
00000156	e788                	lsl.l   #3, D0                 
00000158	2540 0024           	move.l  D0, ($24,A2)           
0000015c	2b6d 0008 fffc      	move.l  ($8,A5), (-$4,A5)      
00000162	2439 0000 0094      	move.l  $94.l, D2              ; absreloc32: #002 HUNK_BSS: _SysBase
00000168	2c42                	movea.l D2, A6                 
0000016a	226d fffc           	movea.l (-$4,A5), A1           
0000016e	4eae fe32           	jsr     (-$1ce,A6)             
00000172	6004                	bra     $178                   
00000174	6000 0002           	bra     $178                   
00000178	4ced 440c ffec      	movem.l (-$14,A5), D2-D3/A2/A6 
0000017e	4e5d                	unlk    A5                     
00000180	4e75                	rts                            
				_set_text__FPCc:
00000182	4e55 ffd8           	link    A5, #-$28              
00000186	48e7 3c32           	movem.l D2-D5/A2-A3/A6, -(A7)  
0000018a	2f2d 0008           	move.l  ($8,A5), -(A7)         
0000018e	4879 0000 0004      	pea     $4.l                   ; absreloc32: #002 HUNK_BSS: 00000004
00000194	4eb9 0000 0e84      	jsr     $e84.l                 ; absreloc32: self: _strcpy
0000019a	508f                	addq.l  #8, A7                 
0000019c	2079 0000 0402      	movea.l $402.l, A0             ; absreloc32: #001 HUNK_DATA: _wnd
000001a2	2b68 0032 fffc      	move.l  ($32,A0), (-$4,A5)     
000001a8	3b79 0000 0386 fffa 	move.w  $386.l, (-$6,A5)       ; absreloc32: #001 HUNK_DATA: 00000386
000001b0	3b79 0000 0388 fff8 	move.w  $388.l, (-$8,A5)       ; absreloc32: #001 HUNK_DATA: 00000388
000001b8	3039 0000 0386      	move.w  $386.l, D0             ; absreloc32: #001 HUNK_DATA: 00000386
000001be	d079 0000 038a      	add.w   $38a.l, D0             ; absreloc32: #001 HUNK_DATA: 0000038a
000001c4	3b40 fff6           	move.w  D0, (-$a,A5)           
000001c8	3079 0000 0388      	movea.w $388.l, A0             ; absreloc32: #001 HUNK_DATA: 00000388
000001ce	d0f9 0000 038c      	adda.w  $38c.l, A0             ; absreloc32: #001 HUNK_DATA: 0000038c
000001d4	3b48 fff4           	move.w  A0, (-$c,A5)           
000001d8	2839 0000 0444      	move.l  $444.l, D4             ; absreloc32: #001 HUNK_DATA: _GfxBase
000001de	2c44                	movea.l D4, A6                 
000001e0	226d fffc           	movea.l (-$4,A5), A1           
000001e4	302d fffa           	move.w  (-$6,A5), D0           
000001e8	322d fff8           	move.w  (-$8,A5), D1           
000001ec	342d fff6           	move.w  (-$a,A5), D2           
000001f0	362d fff4           	move.w  (-$c,A5), D3           
000001f4	4eae fcd6           	jsr     (-$32a,A6)             
000001f8	2b7c 8008 000b ffe4 	move.l  #$8008000b, (-$1c,A5)  
00000200	2b7c 0000 0004 ffe8 	move.l  #$4, (-$18,A5)         ; absreloc32: #002 HUNK_BSS: 00000004
00000208	42ad ffec           	clr.l   (-$14,A5)              
0000020c	42ad fff0           	clr.l   (-$10,A5)              
00000210	2b79 0000 03fe fffc 	move.l  $3fe.l, (-$4,A5)       ; absreloc32: #001 HUNK_DATA: 000003fe
00000218	2b79 0000 0402 ffe0 	move.l  $402.l, (-$20,A5)      ; absreloc32: #001 HUNK_DATA: _wnd
00000220	42ad ffdc           	clr.l   (-$24,A5)              
00000224	41ed ffe4           	lea     (-$1c,A5), A0          
00000228	2b48 ffd8           	move.l  A0, (-$28,A5)          
0000022c	2a39 0000 044c      	move.l  $44c.l, D5             ; absreloc32: #001 HUNK_DATA: _GadToolsBase
00000232	2c45                	movea.l D5, A6                 
00000234	206d fffc           	movea.l (-$4,A5), A0           
00000238	226d ffe0           	movea.l (-$20,A5), A1          
0000023c	246d ffdc           	movea.l (-$24,A5), A2          
00000240	266d ffd8           	movea.l (-$28,A5), A3          
00000244	4eae ffd6           	jsr     (-$2a,A6)              
00000248	6004                	bra     $24e                   
0000024a	6000 0002           	bra     $24e                   
0000024e	4ced 4c3c ffbc      	movem.l (-$44,A5), D2-D5/A2-A3/A6 
00000254	4e5d                	unlk    A5                     
00000256	4e75                	rts                            
				_check_flag__Fv:
00000258	4e55 fff4           	link    A5, #-$c               
0000025c	1b79 0000 03d3 ffff 	move.b  $3d3.l, (-$1,A5)       ; absreloc32: #001 HUNK_DATA: _enc_idx
00000264	102d ffff           	move.b  (-$1,A5), D0           
00000268	0200 0001           	andi.b  #$1, D0                
0000026c	4a00                	tst.b   D0                     
0000026e	6706                	beq     $276                   
00000270	4200                	clr.b   D0                     
00000272	6000 00d0           	bra     $344                   
00000276	7002                	moveq   #$2, D0                
00000278	2b40 fffa           	move.l  D0, (-$6,A5)           
0000027c	7226                	moveq   #$26, D1               
0000027e	b2ad fffa           	cmp.l   (-$6,A5), D1           
00000282	6402                	bcc     $286                   
00000284	6042                	bra     $2c8                   
00000286	41f9 0000 03d3      	lea     $3d3.l, A0             ; absreloc32: #001 HUNK_DATA: _enc_idx
0000028c	202d fffa           	move.l  (-$6,A5), D0           
00000290	1230 0800           	move.b  (A0,D0.l), D1          
00000294	b22d ffff           	cmp.b   (-$1,A5), D1           
00000298	6506                	bcs     $2a0                   
0000029a	4200                	clr.b   D0                     
0000029c	6000 00a6           	bra     $344                   
000002a0	41f9 0000 03d3      	lea     $3d3.l, A0             ; absreloc32: #001 HUNK_DATA: _enc_idx
000002a6	202d fffa           	move.l  (-$6,A5), D0           
000002aa	1b70 0800 ffff      	move.b  (A0,D0.l), (-$1,A5)    
000002b0	102d ffff           	move.b  (-$1,A5), D0           
000002b4	0200 0001           	andi.b  #$1, D0                
000002b8	4a00                	tst.b   D0                     
000002ba	6706                	beq     $2c2                   
000002bc	4200                	clr.b   D0                     
000002be	6000 0084           	bra     $344                   
000002c2	54ad fffa           	addq.l  #2, (-$6,A5)           
000002c6	60b4                	bra     $27c                   
000002c8	1b79 0000 03d4 ffff 	move.b  $3d4.l, (-$1,A5)       ; absreloc32: #001 HUNK_DATA: 000003d4
000002d0	102d ffff           	move.b  (-$1,A5), D0           
000002d4	0a00 0001           	eori.b  #$1, D0                
000002d8	1200                	move.b  D0, D1                 
000002da	0201 0001           	andi.b  #$1, D1                
000002de	4a01                	tst.b   D1                     
000002e0	6704                	beq     $2e6                   
000002e2	4200                	clr.b   D0                     
000002e4	605e                	bra     $344                   
000002e6	7003                	moveq   #$3, D0                
000002e8	2b40 fff6           	move.l  D0, (-$a,A5)           
000002ec	7226                	moveq   #$26, D1               
000002ee	b2ad fff6           	cmp.l   (-$a,A5), D1           
000002f2	6402                	bcc     $2f6                   
000002f4	6044                	bra     $33a                   
000002f6	41f9 0000 03d3      	lea     $3d3.l, A0             ; absreloc32: #001 HUNK_DATA: _enc_idx
000002fc	202d fff6           	move.l  (-$a,A5), D0           
00000300	1230 0800           	move.b  (A0,D0.l), D1          
00000304	b22d ffff           	cmp.b   (-$1,A5), D1           
00000308	6204                	bhi     $30e                   
0000030a	4200                	clr.b   D0                     
0000030c	6036                	bra     $344                   
0000030e	41f9 0000 03d3      	lea     $3d3.l, A0             ; absreloc32: #001 HUNK_DATA: _enc_idx
00000314	202d fff6           	move.l  (-$a,A5), D0           
00000318	1b70 0800 ffff      	move.b  (A0,D0.l), (-$1,A5)    
0000031e	102d ffff           	move.b  (-$1,A5), D0           
00000322	0a00 0001           	eori.b  #$1, D0                
00000326	1200                	move.b  D0, D1                 
00000328	0201 0001           	andi.b  #$1, D1                
0000032c	4a01                	tst.b   D1                     
0000032e	6704                	beq     $334                   
00000330	4200                	clr.b   D0                     
00000332	6010                	bra     $344                   
00000334	54ad fff6           	addq.l  #2, (-$a,A5)           
00000338	60b2                	bra     $2ec                   
0000033a	7001                	moveq   #$1, D0                
0000033c	6006                	bra     $344                   
0000033e	6004                	bra     $344                   
00000340	6000 0002           	bra     $344                   
00000344	4e5d                	unlk    A5                     
00000346	4e75                	rts                            
				_retry_flag__Fv:
00000348	4e55 fff8           	link    A5, #-$8               
0000034c	42ad fffa           	clr.l   (-$6,A5)               
00000350	7031                	moveq   #$31, D0               
00000352	b0ad fffa           	cmp.l   (-$6,A5), D0           
00000356	6c04                	bge     $35c                   
00000358	6000 00cc           	bra     $426                   
0000035c	4eb9 0000 0e94      	jsr     $e94.l                 ; absreloc32: self: _rand
00000362	4878 0027           	pea     $27.w                  
00000366	2f00                	move.l  D0, -(A7)              
00000368	4eb9 0000 0ed4      	jsr     $ed4.l                 ; absreloc32: self: ___umodsi3
0000036e	508f                	addq.l  #8, A7                 
00000370	1b40 fff9           	move.b  D0, (-$7,A5)           
00000374	4eb9 0000 0e94      	jsr     $e94.l                 ; absreloc32: self: _rand
0000037a	4878 0027           	pea     $27.w                  
0000037e	2f00                	move.l  D0, -(A7)              
00000380	4eb9 0000 0ed4      	jsr     $ed4.l                 ; absreloc32: self: ___umodsi3
00000386	508f                	addq.l  #8, A7                 
00000388	1b40 fff8           	move.b  D0, (-$8,A5)           
0000038c	102d fff9           	move.b  (-$7,A5), D0           
00000390	b02d fff8           	cmp.b   (-$8,A5), D0           
00000394	6604                	bne     $39a                   
00000396	6000 0086           	bra     $41e                   
0000039a	7000                	moveq   #$0, D0                
0000039c	102d fff9           	move.b  (-$7,A5), D0           
000003a0	41f9 0000 03d3      	lea     $3d3.l, A0             ; absreloc32: #001 HUNK_DATA: _enc_idx
000003a6	1b70 0800 ffff      	move.b  (A0,D0.l), (-$1,A5)    
000003ac	7000                	moveq   #$0, D0                
000003ae	102d fff9           	move.b  (-$7,A5), D0           
000003b2	41f9 0000 03ac      	lea     $3ac.l, A0             ; absreloc32: #001 HUNK_DATA: _enc_ch
000003b8	1b70 0800 fffe      	move.b  (A0,D0.l), (-$2,A5)    
000003be	7000                	moveq   #$0, D0                
000003c0	102d fff9           	move.b  (-$7,A5), D0           
000003c4	41f9 0000 03d3      	lea     $3d3.l, A0             ; absreloc32: #001 HUNK_DATA: _enc_idx
000003ca	7200                	moveq   #$0, D1                
000003cc	122d fff8           	move.b  (-$8,A5), D1           
000003d0	43f9 0000 03d3      	lea     $3d3.l, A1             ; absreloc32: #001 HUNK_DATA: _enc_idx
000003d6	11b1 1800 0800      	move.b  (A1,D1.l), (A0,D0.l)   
000003dc	7000                	moveq   #$0, D0                
000003de	102d fff9           	move.b  (-$7,A5), D0           
000003e2	41f9 0000 03ac      	lea     $3ac.l, A0             ; absreloc32: #001 HUNK_DATA: _enc_ch
000003e8	7200                	moveq   #$0, D1                
000003ea	122d fff8           	move.b  (-$8,A5), D1           
000003ee	43f9 0000 03ac      	lea     $3ac.l, A1             ; absreloc32: #001 HUNK_DATA: _enc_ch
000003f4	11b1 1800 0800      	move.b  (A1,D1.l), (A0,D0.l)   
000003fa	7000                	moveq   #$0, D0                
000003fc	102d fff8           	move.b  (-$8,A5), D0           
00000400	41f9 0000 03d3      	lea     $3d3.l, A0             ; absreloc32: #001 HUNK_DATA: _enc_idx
00000406	11ad ffff 0800      	move.b  (-$1,A5), (A0,D0.l)    
0000040c	7000                	moveq   #$0, D0                
0000040e	102d fff8           	move.b  (-$8,A5), D0           
00000412	41f9 0000 03ac      	lea     $3ac.l, A0             ; absreloc32: #001 HUNK_DATA: _enc_ch
00000418	11ad fffe 0800      	move.b  (-$2,A5), (A0,D0.l)    
0000041e	52ad fffa           	addq.l  #1, (-$6,A5)           
00000422	6000 ff2c           	bra     $350                   
00000426	6004                	bra     $42c                   
00000428	6000 0002           	bra     $42c                   
0000042c	4e5d                	unlk    A5                     
0000042e	4e75                	rts                            
				_decrypt_flag__FPc:
00000430	4e55 ff98           	link    A5, #-$68              
00000434	2f02                	move.l  D2, -(A7)              
00000436	709c                	moveq   #-$64, D0              
00000438	d08d                	add.l   A5, D0                 
0000043a	7264                	moveq   #$64, D1               
0000043c	2f01                	move.l  D1, -(A7)              
0000043e	2f00                	move.l  D0, -(A7)              
00000440	4eb9 0000 0ef0      	jsr     $ef0.l                 ; absreloc32: self: _bzero
00000446	508f                	addq.l  #8, A7                 
00000448	42ad ff98           	clr.l   (-$68,A5)              
0000044c	7026                	moveq   #$26, D0               
0000044e	b0ad ff98           	cmp.l   (-$68,A5), D0          
00000452	6402                	bcc     $456                   
00000454	6028                	bra     $47e                   
00000456	41ed ff9c           	lea     (-$64,A5), A0          
0000045a	202d ff98           	move.l  (-$68,A5), D0          
0000045e	43f9 0000 03ac      	lea     $3ac.l, A1             ; absreloc32: #001 HUNK_DATA: _enc_ch
00000464	222d ff98           	move.l  (-$68,A5), D1          
00000468	1431 1800           	move.b  (A1,D1.l), D2          
0000046c	4602                	not.b   D2                     
0000046e	122d ff9b           	move.b  (-$65,A5), D1          
00000472	b501                	eor.b   D2, D1                 
00000474	1181 0800           	move.b  D1, (A0,D0.l)          
00000478	52ad ff98           	addq.l  #1, (-$68,A5)          
0000047c	60ce                	bra     $44c                   
0000047e	709c                	moveq   #-$64, D0              
00000480	d08d                	add.l   A5, D0                 
00000482	2f00                	move.l  D0, -(A7)              
00000484	2f2d 0008           	move.l  ($8,A5), -(A7)         
00000488	4eb9 0000 0e84      	jsr     $e84.l                 ; absreloc32: self: _strcpy
0000048e	508f                	addq.l  #8, A7                 
00000490	6004                	bra     $496                   
00000492	6000 0002           	bra     $496                   
00000496	242d ff94           	move.l  (-$6c,A5), D2          
0000049a	4e5d                	unlk    A5                     
0000049c	4e75                	rts                            
0000049e	5265                	addq.w  #1, -(A5)              
000004a0	7472                	moveq   #$72, D2               
000004a2	6f5a                	ble     $4fe                   
000004a4	6569                	bcs     $50f                   
000004a6	7400                	moveq   #$0, D2                
000004a8	576f 726b           	subq.w  #3, ($726b,A7)         
000004ac	6265                	bhi     $513                   
000004ae	6e63                	bgt     $513                   
000004b0	6800 7469           	bvc     $791b                  
000004b4	6d65                	blt     $51b                   
000004b6	722e                	moveq   #$2e, D1               
000004b8	6465                	bcc     $51f                   
000004ba	7669                	moveq   #$69, D3               
000004bc	6365                	bls     $523                   
000004be	0046 6c61           	ori.w   #$6c61, D6             
000004c2	673a                	beq     $4fe                   
000004c4	2000                	move.l  D0, D0                 
000004c6	4361                	dc.w $4361; ILLEGAL            
000004c8	6c63                	bge     $52d                   
000004ca	756c                	dc.w $756c; ILLEGAL            
000004cc	6174                	bsr     $542                   
000004ce	696e                	bvs     $53e                   
000004d0	6720                	beq     $4f2                   
000004d2	7468                	moveq   #$68, D2               
000004d4	6520                	bcs     $4f6                   
000004d6	666c                	bne     $544                   
000004d8	6167                	bsr     $541                   
000004da	002e 0000 4e55      	ori.b   #$0, ($4e55,A6)        
000004e0	fe60                	dc.w    $fe60; opcode 1111     
000004e2	48e7 3f3a           	movem.l D2-D7/A2-A4/A6, -(A7)  
000004e6	4eb9 0000 1128      	jsr     $1128.l                ; absreloc32: self: ___main
000004ec	42ad fffc           	clr.l   (-$4,A5)               
000004f0	2439 0000 0454      	move.l  $454.l, D2             ; absreloc32: #001 HUNK_DATA: _IntuitionBase
000004f6	2c42                	movea.l D2, A6                 
000004f8	206d fffc           	movea.l (-$4,A5), A0           
000004fc	4eae fe02           	jsr     (-$1fe,A6)             
00000500	2b40 fff8           	move.l  D0, (-$8,A5)           
00000504	2b6d fff8 fff4      	move.l  (-$8,A5), (-$c,A5)     
0000050a	42ad fff8           	clr.l   (-$8,A5)               
0000050e	2b6d fff4 fffc      	move.l  (-$c,A5), (-$4,A5)     
00000514	41ed fff8           	lea     (-$8,A5), A0           
00000518	2b48 fff0           	move.l  A0, (-$10,A5)          
0000051c	2639 0000 044c      	move.l  $44c.l, D3             ; absreloc32: #001 HUNK_DATA: _GadToolsBase
00000522	2c43                	movea.l D3, A6                 
00000524	206d fffc           	movea.l (-$4,A5), A0           
00000528	226d fff0           	movea.l (-$10,A5), A1          
0000052c	4eae ff82           	jsr     (-$7e,A6)              
00000530	2b40 ffec           	move.l  D0, (-$14,A5)          
00000534	42ad fff0           	clr.l   (-$10,A5)              
00000538	41ed fff0           	lea     (-$10,A5), A0          
0000053c	2b48 fff8           	move.l  A0, (-$8,A5)           
00000540	2839 0000 044c      	move.l  $44c.l, D4             ; absreloc32: #001 HUNK_DATA: _GadToolsBase
00000546	2c44                	movea.l D4, A6                 
00000548	206d fff8           	movea.l (-$8,A5), A0           
0000054c	4eae ff8e           	jsr     (-$72,A6)              
00000550	2b40 fffc           	move.l  D0, (-$4,A5)           
00000554	2b6d fffc ffe8      	move.l  (-$4,A5), (-$18,A5)    
0000055a	42ad fff8           	clr.l   (-$8,A5)               
0000055e	7001                	moveq   #$1, D0                
00000560	b0ad fff8           	cmp.l   (-$8,A5), D0           
00000564	6404                	bcc     $56a                   
00000566	6000 00d4           	bra     $63c                   
0000056a	202d fff8           	move.l  (-$8,A5), D0           
0000056e	2040                	movea.l D0, A0                 
00000570	2208                	move.l  A0, D1                 
00000572	e589                	lsl.l   #2, D1                 
00000574	d280                	add.l   D0, D1                 
00000576	2e01                	move.l  D1, D7                 
00000578	e78f                	lsl.l   #3, D7                 
0000057a	2047                	movea.l D7, A0                 
0000057c	d1c0                	adda.l  D0, A0                 
0000057e	d088                	add.l   A0, D0                 
00000580	41f9 0000 0358      	lea     $358.l, A0             ; absreloc32: #001 HUNK_DATA: _gadgets
00000586	21ad ffec 081a      	move.l  (-$14,A5), ($1a,A0,D0.l) 
0000058c	202d fff8           	move.l  (-$8,A5), D0           
00000590	2040                	movea.l D0, A0                 
00000592	2208                	move.l  A0, D1                 
00000594	e589                	lsl.l   #2, D1                 
00000596	d280                	add.l   D0, D1                 
00000598	2e01                	move.l  D1, D7                 
0000059a	e78f                	lsl.l   #3, D7                 
0000059c	2047                	movea.l D7, A0                 
0000059e	d1c0                	adda.l  D0, A0                 
000005a0	d088                	add.l   A0, D0                 
000005a2	41f9 0000 0358      	lea     $358.l, A0             ; absreloc32: #001 HUNK_DATA: _gadgets
000005a8	2b70 0800 fffc      	move.l  (A0,D0.l), (-$4,A5)    
000005ae	2b6d ffe8 ffe4      	move.l  (-$18,A5), (-$1c,A5)   
000005b4	202d fff8           	move.l  (-$8,A5), D0           
000005b8	2040                	movea.l D0, A0                 
000005ba	2208                	move.l  A0, D1                 
000005bc	e589                	lsl.l   #2, D1                 
000005be	d280                	add.l   D0, D1                 
000005c0	2e01                	move.l  D1, D7                 
000005c2	e78f                	lsl.l   #3, D7                 
000005c4	2047                	movea.l D7, A0                 
000005c6	d1c0                	adda.l  D0, A0                 
000005c8	d088                	add.l   A0, D0                 
000005ca	2040                	movea.l D0, A0                 
000005cc	d1fc 0000 035c      	adda.l  #$35c, A0              ; absreloc32: #001 HUNK_DATA: 0000035c
000005d2	2b48 ffe0           	move.l  A0, (-$20,A5)          
000005d6	202d fff8           	move.l  (-$8,A5), D0           
000005da	2040                	movea.l D0, A0                 
000005dc	2208                	move.l  A0, D1                 
000005de	e589                	lsl.l   #2, D1                 
000005e0	d280                	add.l   D0, D1                 
000005e2	2e01                	move.l  D1, D7                 
000005e4	e78f                	lsl.l   #3, D7                 
000005e6	2047                	movea.l D7, A0                 
000005e8	d1c0                	adda.l  D0, A0                 
000005ea	d088                	add.l   A0, D0                 
000005ec	2040                	movea.l D0, A0                 
000005ee	d1fc 0000 037a      	adda.l  #$37a, A0              ; absreloc32: #001 HUNK_DATA: 0000037a
000005f4	2b48 ffdc           	move.l  A0, (-$24,A5)          
000005f8	2a39 0000 044c      	move.l  $44c.l, D5             ; absreloc32: #001 HUNK_DATA: _GadToolsBase
000005fe	2c45                	movea.l D5, A6                 
00000600	202d fffc           	move.l  (-$4,A5), D0           
00000604	206d ffe4           	movea.l (-$1c,A5), A0          
00000608	226d ffe0           	movea.l (-$20,A5), A1          
0000060c	246d ffdc           	movea.l (-$24,A5), A2          
00000610	4eae ffe2           	jsr     (-$1e,A6)              
00000614	2b40 ffd8           	move.l  D0, (-$28,A5)          
00000618	2b6d ffd8 ffe8      	move.l  (-$28,A5), (-$18,A5)   
0000061e	202d fff8           	move.l  (-$8,A5), D0           
00000622	2200                	move.l  D0, D1                 
00000624	2001                	move.l  D1, D0                 
00000626	e588                	lsl.l   #2, D0                 
00000628	41f9 0000 03fa      	lea     $3fa.l, A0             ; absreloc32: #001 HUNK_DATA: _gadget_handles
0000062e	21ad ffe8 0800      	move.l  (-$18,A5), (A0,D0.l)   
00000634	52ad fff8           	addq.l  #1, (-$8,A5)           
00000638	6000 ff24           	bra     $55e                   
0000063c	2b7c 8000 0064 ff40 	move.l  #$80000064, (-$c0,A5)  
00000644	7032                	moveq   #$32, D0               
00000646	2b40 ff44           	move.l  D0, (-$bc,A5)          
0000064a	2b7c 8000 0065 ff48 	move.l  #$80000065, (-$b8,A5)  
00000652	7232                	moveq   #$32, D1               
00000654	2b41 ff4c           	move.l  D1, (-$b4,A5)          
00000658	2b7c 8000 0066 ff50 	move.l  #$80000066, (-$b0,A5)  
00000660	2b7c 0000 0208 ff54 	move.l  #$208, (-$ac,A5)       
00000668	2b7c 8000 0067 ff58 	move.l  #$80000067, (-$a8,A5)  
00000670	7e50                	moveq   #$50, D7               
00000672	2b47 ff5c           	move.l  D7, (-$a4,A5)          
00000676	2b7c 8000 006a ff60 	move.l  #$8000006a, (-$a0,A5)  
0000067e	2b7c 0000 0240 ff64 	move.l  #$240, (-$9c,A5)       
00000686	2b7c 8000 006b ff68 	move.l  #$8000006b, (-$98,A5)  
0000068e	2b7c 0000 100e ff6c 	move.l  #$100e, (-$94,A5)      
00000696	2b7c 8000 006c ff70 	move.l  #$8000006c, (-$90,A5)  
0000069e	2b6d fff0 ff74      	move.l  (-$10,A5), (-$8c,A5)   
000006a4	2b7c 8000 006e ff78 	move.l  #$8000006e, (-$88,A5)  
000006ac	2b7c 0000 049e ff7c 	move.l  #$49e, (-$84,A5)       ; absreloc32: self: 0000049e
000006b4	2b7c 8000 0078 ff80 	move.l  #$80000078, (-$80,A5)  
000006bc	2b7c 0000 04a8 ff84 	move.l  #$4a8, (-$7c,A5)       ; absreloc32: self: 000004a8
000006c4	42ad ff88           	clr.l   (-$78,A5)              
000006c8	708c                	moveq   #-$74, D0              
000006ca	d08d                	add.l   A5, D0                 
000006cc	220d                	move.l  A5, D1                 
000006ce	0681 ffff ff40      	addi.l  #-$c0, D1              
000006d4	307c 004c           	movea.w #$4c, A0               
000006d8	2f08                	move.l  A0, -(A7)              
000006da	2f00                	move.l  D0, -(A7)              
000006dc	2f01                	move.l  D1, -(A7)              
000006de	4eb9 0000 0f58      	jsr     $f58.l                 ; absreloc32: self: _bcopy
000006e4	4fef 000c           	lea     ($c,A7), A7            
000006e8	42ad ffd8           	clr.l   (-$28,A5)              
000006ec	41ed ff8c           	lea     (-$74,A5), A0          
000006f0	2b48 ffdc           	move.l  A0, (-$24,A5)          
000006f4	2c39 0000 0454      	move.l  $454.l, D6             ; absreloc32: #001 HUNK_DATA: _IntuitionBase
000006fa	2c46                	movea.l D6, A6                 
000006fc	206d ffd8           	movea.l (-$28,A5), A0          
00000700	226d ffdc           	movea.l (-$24,A5), A1          
00000704	4eae fda2           	jsr     (-$25e,A6)             
00000708	2b40 ffe0           	move.l  D0, (-$20,A5)          
0000070c	23ed ffe0 0000 0402 	move.l  (-$20,A5), $402.l      ; absreloc32: #001 HUNK_DATA: _wnd
00000714	2b79 0000 0402 ffd8 	move.l  $402.l, (-$28,A5)      ; absreloc32: #001 HUNK_DATA: _wnd
0000071c	42ad ffdc           	clr.l   (-$24,A5)              
00000720	2b79 0000 044c fe64 	move.l  $44c.l, (-$19c,A5)     ; absreloc32: #001 HUNK_DATA: _GadToolsBase
00000728	2c6d fe64           	movea.l (-$19c,A5), A6         
0000072c	206d ffd8           	movea.l (-$28,A5), A0          
00000730	226d ffdc           	movea.l (-$24,A5), A1          
00000734	4eae ffac           	jsr     (-$54,A6)              
00000738	41ed ff40           	lea     (-$c0,A5), A0          
0000073c	4290                	clr.l   (A0)                   
0000073e	5888                	addq.l  #4, A0                 
00000740	4290                	clr.l   (A0)                   
00000742	5888                	addq.l  #4, A0                 
00000744	4290                	clr.l   (A0)                   
00000746	5888                	addq.l  #4, A0                 
00000748	4290                	clr.l   (A0)                   
0000074a	5888                	addq.l  #4, A0                 
0000074c	4290                	clr.l   (A0)                   
0000074e	5888                	addq.l  #4, A0                 
00000750	3b7c 0044 ff44      	move.w  #$44, (-$bc,A5)        
00000756	3b7c 0026 ff46      	move.w  #$26, (-$ba,A5)        
0000075c	3b7c 0002 ff48      	move.w  #$2, (-$b8,A5)         
00000762	2b7c 0000 0058 ff4a 	move.l  #$58, (-$b6,A5)        ; absreloc32: #001 HUNK_DATA: _retrozeit_img_data
0000076a	1b7c 0003 ff4e      	move.b  #$3, (-$b2,A5)         
00000770	2079 0000 0402      	movea.l $402.l, A0             ; absreloc32: #001 HUNK_DATA: _wnd
00000776	2b68 0032 ffd8      	move.l  ($32,A0), (-$28,A5)    
0000077c	41ed ff40           	lea     (-$c0,A5), A0          
00000780	2b48 ffdc           	move.l  A0, (-$24,A5)          
00000784	3b7c 000e ff3e      	move.w  #$e, (-$c2,A5)         
0000078a	3b7c 001a ff3c      	move.w  #$1a, (-$c4,A5)        
00000790	2679 0000 0454      	movea.l $454.l, A3             ; absreloc32: #001 HUNK_DATA: _IntuitionBase
00000796	2c4b                	movea.l A3, A6                 
00000798	206d ffd8           	movea.l (-$28,A5), A0          
0000079c	226d ffdc           	movea.l (-$24,A5), A1          
000007a0	302d ff3e           	move.w  (-$c2,A5), D0          
000007a4	322d ff3c           	move.w  (-$c4,A5), D1          
000007a8	4eae ff8e           	jsr     (-$72,A6)              
000007ac	2879 0000 0094      	movea.l $94.l, A4              ; absreloc32: #002 HUNK_BSS: _SysBase
000007b2	2c4c                	movea.l A4, A6                 
000007b4	4eae fd66           	jsr     (-$29a,A6)             
000007b8	2b40 ffd8           	move.l  D0, (-$28,A5)          
000007bc	2b6d ffd8 ffdc      	move.l  (-$28,A5), (-$24,A5)   
000007c2	2b6d ffdc ffd8      	move.l  (-$24,A5), (-$28,A5)   
000007c8	7028                	moveq   #$28, D0               
000007ca	2b40 ffe0           	move.l  D0, (-$20,A5)          
000007ce	2b79 0000 0094 fea4 	move.l  $94.l, (-$15c,A5)      ; absreloc32: #002 HUNK_BSS: _SysBase
000007d6	2c6d fea4           	movea.l (-$15c,A5), A6         
000007da	206d ffd8           	movea.l (-$28,A5), A0          
000007de	202d ffe0           	move.l  (-$20,A5), D0          
000007e2	4eae fd72           	jsr     (-$28e,A6)             
000007e6	2b40 ffe4           	move.l  D0, (-$1c,A5)          
000007ea	2b6d ffe4 fffc      	move.l  (-$1c,A5), (-$4,A5)    
000007f0	2b7c 0000 04b2 ffd8 	move.l  #$4b2, (-$28,A5)       ; absreloc32: self: 000004b2
000007f8	7201                	moveq   #$1, D1                
000007fa	2b41 ffe0           	move.l  D1, (-$20,A5)          
000007fe	2b6d fffc ffe4      	move.l  (-$4,A5), (-$1c,A5)    
00000804	42ad ff38           	clr.l   (-$c8,A5)              
00000808	2b79 0000 0094 fea0 	move.l  $94.l, (-$160,A5)      ; absreloc32: #002 HUNK_BSS: _SysBase
00000810	2c6d fea0           	movea.l (-$160,A5), A6         
00000814	206d ffd8           	movea.l (-$28,A5), A0          
00000818	202d ffe0           	move.l  (-$20,A5), D0          
0000081c	226d ffe4           	movea.l (-$1c,A5), A1          
00000820	222d ff38           	move.l  (-$c8,A5), D1          
00000824	4eae fe44           	jsr     (-$1bc,A6)             
00000828	1b40 ff37           	move.b  D0, (-$c9,A5)          
0000082c	206d ffdc           	movea.l (-$24,A5), A0          
00000830	7000                	moveq   #$0, D0                
00000832	1028 000f           	move.b  ($f,A0), D0            
00000836	7e01                	moveq   #$1, D7                
00000838	2b47 fe60           	move.l  D7, (-$1a0,A5)         
0000083c	222d fe60           	move.l  (-$1a0,A5), D1         
00000840	e1a9                	lsl.l   D0, D1                 
00000842	2001                	move.l  D1, D0                 
00000844	2b40 ff38           	move.l  D0, (-$c8,A5)          
00000848	422d ff37           	clr.b   (-$c9,A5)              
0000084c	422d ff36           	clr.b   (-$ca,A5)              
00000850	2079 0000 0402      	movea.l $402.l, A0             ; absreloc32: #001 HUNK_DATA: _wnd
00000856	2268 0056           	movea.l ($56,A0), A1           
0000085a	7000                	moveq   #$0, D0                
0000085c	1029 000f           	move.b  ($f,A1), D0            
00000860	7e01                	moveq   #$1, D7                
00000862	2b47 fe60           	move.l  D7, (-$1a0,A5)         
00000866	222d fe60           	move.l  (-$1a0,A5), D1         
0000086a	e1a9                	lsl.l   D0, D1                 
0000086c	2001                	move.l  D1, D0                 
0000086e	2b40 ffd8           	move.l  D0, (-$28,A5)          
00000872	42ad ffe0           	clr.l   (-$20,A5)              
00000876	4a2d ff37           	tst.b   (-$c9,A5)              
0000087a	6704                	beq     $880                   
0000087c	6000 0224           	bra     $aa2                   
00000880	2e2d ffd8           	move.l  (-$28,A5), D7          
00000884	8ead ff38           	or.l    (-$c8,A5), D7          
00000888	2b47 ffe4           	move.l  D7, (-$1c,A5)          
0000088c	2b79 0000 0094 fe9c 	move.l  $94.l, (-$164,A5)      ; absreloc32: #002 HUNK_BSS: _SysBase
00000894	2c6d fe9c           	movea.l (-$164,A5), A6         
00000898	202d ffe4           	move.l  (-$1c,A5), D0          
0000089c	4eae fec2           	jsr     (-$13e,A6)             
000008a0	2b40 ff32           	move.l  D0, (-$ce,A5)          
000008a4	2b6d ff32 ff2e      	move.l  (-$ce,A5), (-$d2,A5)   
000008aa	202d ff2e           	move.l  (-$d2,A5), D0          
000008ae	c0ad ff38           	and.l   (-$c8,A5), D0          
000008b2	4a80                	tst.l   D0                     
000008b4	6700 013a           	beq     $9f0                   
000008b8	2b6d fffc ff32      	move.l  (-$4,A5), (-$ce,A5)    
000008be	2b79 0000 0094 fe98 	move.l  $94.l, (-$168,A5)      ; absreloc32: #002 HUNK_BSS: _SysBase
000008c6	2c6d fe98           	movea.l (-$168,A5), A6         
000008ca	226d ff32           	movea.l (-$ce,A5), A1          
000008ce	4eae fe26           	jsr     (-$1da,A6)             
000008d2	1b40 ff2d           	move.b  D0, (-$d3,A5)          
000008d6	6100 f980           	bsr     $258                   
000008da	4a00                	tst.b   D0                     
000008dc	6776                	beq     $954                   
000008de	41f9 0000 04bf      	lea     $4bf.l, A0             ; absreloc32: self: 000004bf
000008e4	43ed feac           	lea     (-$154,A5), A1         
000008e8	1290                	move.b  (A0), (A1)             
000008ea	5289                	addq.l  #1, A1                 
000008ec	5288                	addq.l  #1, A0                 
000008ee	1290                	move.b  (A0), (A1)             
000008f0	5289                	addq.l  #1, A1                 
000008f2	5288                	addq.l  #1, A0                 
000008f4	1290                	move.b  (A0), (A1)             
000008f6	5289                	addq.l  #1, A1                 
000008f8	5288                	addq.l  #1, A0                 
000008fa	1290                	move.b  (A0), (A1)             
000008fc	5289                	addq.l  #1, A1                 
000008fe	5288                	addq.l  #1, A0                 
00000900	1290                	move.b  (A0), (A1)             
00000902	5289                	addq.l  #1, A1                 
00000904	5288                	addq.l  #1, A0                 
00000906	1290                	move.b  (A0), (A1)             
00000908	5289                	addq.l  #1, A1                 
0000090a	5288                	addq.l  #1, A0                 
0000090c	1290                	move.b  (A0), (A1)             
0000090e	5289                	addq.l  #1, A1                 
00000910	5288                	addq.l  #1, A0                 
00000912	200d                	move.l  A5, D0                 
00000914	0680 ffff feb3      	addi.l  #-$14d, D0             
0000091a	4878 0079           	pea     $79.w                  
0000091e	2f00                	move.l  D0, -(A7)              
00000920	4eb9 0000 0ef0      	jsr     $ef0.l                 ; absreloc32: self: _bzero
00000926	508f                	addq.l  #8, A7                 
00000928	200d                	move.l  A5, D0                 
0000092a	0680 ffff feac      	addi.l  #-$154, D0             
00000930	2200                	move.l  D0, D1                 
00000932	5c81                	addq.l  #6, D1                 
00000934	2f01                	move.l  D1, -(A7)              
00000936	6100 faf8           	bsr     $430                   
0000093a	588f                	addq.l  #4, A7                 
0000093c	200d                	move.l  A5, D0                 
0000093e	0680 ffff feac      	addi.l  #-$154, D0             
00000944	2f00                	move.l  D0, -(A7)              
00000946	6100 f83a           	bsr     $182                   
0000094a	588f                	addq.l  #4, A7                 
0000094c	422d ff36           	clr.b   (-$ca,A5)              
00000950	6000 009a           	bra     $9ec                   
00000954	200d                	move.l  A5, D0                 
00000956	0680 ffff feac      	addi.l  #-$154, D0             
0000095c	223c 0000 04c6      	move.l  #$4c6, D1              ; absreloc32: self: 000004c6
00000962	307c 0015           	movea.w #$15, A0               
00000966	2f08                	move.l  A0, -(A7)              
00000968	2f00                	move.l  D0, -(A7)              
0000096a	2f01                	move.l  D1, -(A7)              
0000096c	4eb9 0000 0f58      	jsr     $f58.l                 ; absreloc32: self: _bcopy
00000972	4fef 000c           	lea     ($c,A7), A7            
00000976	200d                	move.l  A5, D0                 
00000978	0680 ffff fec1      	addi.l  #-$13f, D0             
0000097e	4878 006b           	pea     $6b.w                  
00000982	2f00                	move.l  D0, -(A7)              
00000984	4eb9 0000 0ef0      	jsr     $ef0.l                 ; absreloc32: self: _bzero
0000098a	508f                	addq.l  #8, A7                 
0000098c	52ad ffe0           	addq.l  #1, (-$20,A5)          
00000990	7003                	moveq   #$3, D0                
00000992	b0ad ffe0           	cmp.l   (-$20,A5), D0          
00000996	6c04                	bge     $99c                   
00000998	42ad ffe0           	clr.l   (-$20,A5)              
0000099c	42ad ff32           	clr.l   (-$ce,A5)              
000009a0	222d ff32           	move.l  (-$ce,A5), D1          
000009a4	b2ad ffe0           	cmp.l   (-$20,A5), D1          
000009a8	6d02                	blt     $9ac                   
000009aa	601e                	bra     $9ca                   
000009ac	4879 0000 04db      	pea     $4db.l                 ; absreloc32: self: 000004db
000009b2	200d                	move.l  A5, D0                 
000009b4	0680 ffff feac      	addi.l  #-$154, D0             
000009ba	2f00                	move.l  D0, -(A7)              
000009bc	4eb9 0000 1038      	jsr     $1038.l                ; absreloc32: self: _strcat
000009c2	508f                	addq.l  #8, A7                 
000009c4	52ad ff32           	addq.l  #1, (-$ce,A5)          
000009c8	60d6                	bra     $9a0                   
000009ca	200d                	move.l  A5, D0                 
000009cc	0680 ffff feac      	addi.l  #-$154, D0             
000009d2	2f00                	move.l  D0, -(A7)              
000009d4	6100 f7ac           	bsr     $182                   
000009d8	588f                	addq.l  #4, A7                 
000009da	6100 f96c           	bsr     $348                   
000009de	4878 0064           	pea     $64.w                  
000009e2	2f2d fffc           	move.l  (-$4,A5), -(A7)        
000009e6	6100 f71c           	bsr     $104                   
000009ea	508f                	addq.l  #8, A7                 
000009ec	6000 fe88           	bra     $876                   
000009f0	2079 0000 0402      	movea.l $402.l, A0             ; absreloc32: #001 HUNK_DATA: _wnd
000009f6	2b68 0056 ff32      	move.l  ($56,A0), (-$ce,A5)    
000009fc	2b79 0000 044c fe94 	move.l  $44c.l, (-$16c,A5)     ; absreloc32: #001 HUNK_DATA: _GadToolsBase
00000a04	2c6d fe94           	movea.l (-$16c,A5), A6         
00000a08	206d ff32           	movea.l (-$ce,A5), A0          
00000a0c	4eae ffb8           	jsr     (-$48,A6)              
00000a10	2b40 ffe4           	move.l  D0, (-$1c,A5)          
00000a14	2b6d ffe4 fea8      	move.l  (-$1c,A5), (-$158,A5)  
00000a1a	206d fea8           	movea.l (-$158,A5), A0         
00000a1e	2b68 0014 ff32      	move.l  ($14,A0), (-$ce,A5)    
00000a24	2b6d fea8 ffe4      	move.l  (-$158,A5), (-$1c,A5)  
00000a2a	2b79 0000 044c fe90 	move.l  $44c.l, (-$170,A5)     ; absreloc32: #001 HUNK_DATA: _GadToolsBase
00000a32	2c6d fe90           	movea.l (-$170,A5), A6         
00000a36	226d ffe4           	movea.l (-$1c,A5), A1          
00000a3a	4eae ffb2           	jsr     (-$4e,A6)              
00000a3e	42ad ffe4           	clr.l   (-$1c,A5)              
00000a42	202d ff32           	move.l  (-$ce,A5), D0          
00000a46	7e40                	moveq   #$40, D7               
00000a48	be80                	cmp.l   D0, D7                 
00000a4a	670a                	beq     $a56                   
00000a4c	0c80 0000 0200      	cmpi.l  #$200, D0              
00000a52	6740                	beq     $a94                   
00000a54	6048                	bra     $a9e                   
00000a56	206d fea8           	movea.l (-$158,A5), A0         
00000a5a	2b68 001c ffe4      	move.l  ($1c,A0), (-$1c,A5)    
00000a60	206d ffe4           	movea.l (-$1c,A5), A0          
00000a64	0c68 0001 0026      	cmpi.w  #$1, ($26,A0)          
00000a6a	6626                	bne     $a92                   
00000a6c	4a2d ff36           	tst.b   (-$ca,A5)              
00000a70	6620                	bne     $a92                   
00000a72	4879 0000 04c6      	pea     $4c6.l                 ; absreloc32: self: 000004c6
00000a78	6100 f708           	bsr     $182                   
00000a7c	588f                	addq.l  #4, A7                 
00000a7e	4878 0064           	pea     $64.w                  
00000a82	2f2d fffc           	move.l  (-$4,A5), -(A7)        
00000a86	6100 f67c           	bsr     $104                   
00000a8a	508f                	addq.l  #8, A7                 
00000a8c	1b7c 0001 ff36      	move.b  #$1, (-$ca,A5)         
00000a92	600a                	bra     $a9e                   
00000a94	1b7c 0001 ff37      	move.b  #$1, (-$c9,A5)         
00000a9a	6000 0002           	bra     $a9e                   
00000a9e	6000 fdd6           	bra     $876                   
00000aa2	2b6d fffc fea8      	move.l  (-$4,A5), (-$158,A5)   
00000aa8	2b79 0000 0094 fe8c 	move.l  $94.l, (-$174,A5)      ; absreloc32: #002 HUNK_BSS: _SysBase
00000ab0	2c6d fe8c           	movea.l (-$174,A5), A6         
00000ab4	226d fea8           	movea.l (-$158,A5), A1         
00000ab8	4eae fe2c           	jsr     (-$1d4,A6)             
00000abc	2b40 ff2e           	move.l  D0, (-$d2,A5)          
00000ac0	4aad ff2e           	tst.l   (-$d2,A5)              
00000ac4	661a                	bne     $ae0                   
00000ac6	2b6d fffc fea8      	move.l  (-$4,A5), (-$158,A5)   
00000acc	2b79 0000 0094 fe88 	move.l  $94.l, (-$178,A5)      ; absreloc32: #002 HUNK_BSS: _SysBase
00000ad4	2c6d fe88           	movea.l (-$178,A5), A6         
00000ad8	226d fea8           	movea.l (-$158,A5), A1         
00000adc	4eae fe20           	jsr     (-$1e0,A6)             
00000ae0	2b6d fffc fea8      	move.l  (-$4,A5), (-$158,A5)   
00000ae6	2b79 0000 0094 fe84 	move.l  $94.l, (-$17c,A5)      ; absreloc32: #002 HUNK_BSS: _SysBase
00000aee	2c6d fe84           	movea.l (-$17c,A5), A6         
00000af2	226d fea8           	movea.l (-$158,A5), A1         
00000af6	4eae fe26           	jsr     (-$1da,A6)             
00000afa	1b40 ff2d           	move.b  D0, (-$d3,A5)          
00000afe	2b6d fffc fea8      	move.l  (-$4,A5), (-$158,A5)   
00000b04	2b79 0000 0094 fe80 	move.l  $94.l, (-$180,A5)      ; absreloc32: #002 HUNK_BSS: _SysBase
00000b0c	2c6d fe80           	movea.l (-$180,A5), A6         
00000b10	226d fea8           	movea.l (-$158,A5), A1         
00000b14	4eae fe3e           	jsr     (-$1c2,A6)             
00000b18	2b6d fffc fea8      	move.l  (-$4,A5), (-$158,A5)   
00000b1e	2b79 0000 0094 fe7c 	move.l  $94.l, (-$184,A5)      ; absreloc32: #002 HUNK_BSS: _SysBase
00000b26	2c6d fe7c           	movea.l (-$184,A5), A6         
00000b2a	206d fea8           	movea.l (-$158,A5), A0         
00000b2e	4eae fd6c           	jsr     (-$294,A6)             
00000b32	2b6d ffdc fea8      	move.l  (-$24,A5), (-$158,A5)  
00000b38	2b79 0000 0094 fe78 	move.l  $94.l, (-$188,A5)      ; absreloc32: #002 HUNK_BSS: _SysBase
00000b40	2c6d fe78           	movea.l (-$188,A5), A6         
00000b44	206d fea8           	movea.l (-$158,A5), A0         
00000b48	4eae fd60           	jsr     (-$2a0,A6)             
00000b4c	2b79 0000 0402 fea8 	move.l  $402.l, (-$158,A5)     ; absreloc32: #001 HUNK_DATA: _wnd
00000b54	2b79 0000 0454 fe74 	move.l  $454.l, (-$18c,A5)     ; absreloc32: #001 HUNK_DATA: _IntuitionBase
00000b5c	2c6d fe74           	movea.l (-$18c,A5), A6         
00000b60	206d fea8           	movea.l (-$158,A5), A0         
00000b64	4eae ffb8           	jsr     (-$48,A6)              
00000b68	2b6d fff0 fea8      	move.l  (-$10,A5), (-$158,A5)  
00000b6e	2b79 0000 044c fe70 	move.l  $44c.l, (-$190,A5)     ; absreloc32: #001 HUNK_DATA: _GadToolsBase
00000b76	2c6d fe70           	movea.l (-$190,A5), A6         
00000b7a	206d fea8           	movea.l (-$158,A5), A0         
00000b7e	4eae ffdc           	jsr     (-$24,A6)              
00000b82	2b6d ffec fea8      	move.l  (-$14,A5), (-$158,A5)  
00000b88	2b79 0000 044c fe6c 	move.l  $44c.l, (-$194,A5)     ; absreloc32: #001 HUNK_DATA: _GadToolsBase
00000b90	2c6d fe6c           	movea.l (-$194,A5), A6         
00000b94	206d fea8           	movea.l (-$158,A5), A0         
00000b98	4eae ff7c           	jsr     (-$84,A6)              
00000b9c	42ad fea8           	clr.l   (-$158,A5)             
00000ba0	2b6d fff4 ff2e      	move.l  (-$c,A5), (-$d2,A5)    
00000ba6	2b79 0000 0454 fe68 	move.l  $454.l, (-$198,A5)     ; absreloc32: #001 HUNK_DATA: _IntuitionBase
00000bae	2c6d fe68           	movea.l (-$198,A5), A6         
00000bb2	206d fea8           	movea.l (-$158,A5), A0         
00000bb6	226d ff2e           	movea.l (-$d2,A5), A1          
00000bba	4eae fdfc           	jsr     (-$204,A6)             
00000bbe	7000                	moveq   #$0, D0                
00000bc0	6006                	bra     $bc8                   
00000bc2	7000                	moveq   #$0, D0                
00000bc4	6000 0002           	bra     $bc8                   
00000bc8	4ced 5cfc fe38      	movem.l (-$1c8,A5), D2-D7/A2-A4/A6 
00000bce	4e5d                	unlk    A5                     
00000bd0	4e75                	rts                            
00000bd2	0000 48e7           	ori.b   #$e7, D0               
00000bd6	3022                	move.w  -(A2), D0              
00000bd8	2479 0000 0084      	movea.l $84.l, A2              ; absreloc32: #002 HUNK_BSS: __WBenchMsg
00000bde	b4fc 0000           	cmpa.w  #$0, A2                
00000be2	6700 0082           	beq     $c66                   
00000be6	41f9 0000 0414      	lea     $414.l, A0             ; absreloc32: #001 HUNK_DATA: ___stdiowin
00000bec	4a10                	tst.b   (A0)                   
00000bee	673e                	beq     $c2e                   
00000bf0	2c79 0000 045c      	movea.l $45c.l, A6             ; absreloc32: #001 HUNK_DATA: ___DOSBase
00000bf6	2208                	move.l  A0, D1                 
00000bf8	243c 0000 03ed      	move.l  #$3ed, D2              
00000bfe	4eae ffe2           	jsr     (-$1e,A6)              
00000c02	2400                	move.l  D0, D2                 
00000c04	23c0 0000 0410      	move.l  D0, $410.l             ; absreloc32: #001 HUNK_DATA: 00000410
00000c0a	660a                	bne     $c16                   
00000c0c	4878 0014           	pea     $14.w                  
00000c10	4eb9 0000 0068      	jsr     $68.l                  ; absreloc32: self: __exit
00000c16	2c79 0000 045c      	movea.l $45c.l, A6             ; absreloc32: #001 HUNK_DATA: ___DOSBase
00000c1c	2200                	move.l  D0, D1                 
00000c1e	4eae feda           	jsr     (-$126,A6)             
00000c22	2c79 0000 045c      	movea.l $45c.l, A6             ; absreloc32: #001 HUNK_DATA: ___DOSBase
00000c28	2202                	move.l  D2, D1                 
00000c2a	4eae fed4           	jsr     (-$12c,A6)             
00000c2e	206a 0024           	movea.l ($24,A2), A0           
00000c32	b0fc 0000           	cmpa.w  #$0, A0                
00000c36	671e                	beq     $c56                   
00000c38	2c79 0000 045c      	movea.l $45c.l, A6             ; absreloc32: #001 HUNK_DATA: ___DOSBase
00000c3e	2210                	move.l  (A0), D1               
00000c40	4eae ffa0           	jsr     (-$60,A6)              
00000c44	2c79 0000 045c      	movea.l $45c.l, A6             ; absreloc32: #001 HUNK_DATA: ___DOSBase
00000c4a	2200                	move.l  D0, D1                 
00000c4c	4eae ff82           	jsr     (-$7e,A6)              
00000c50	23c0 0000 040c      	move.l  D0, $40c.l             ; absreloc32: #001 HUNK_DATA: 0000040c
00000c56	42b9 0000 00a4      	clr.l   $a4.l                  ; absreloc32: #002 HUNK_BSS: ___argc
00000c5c	23ca 0000 008c      	move.l  A2, $8c.l              ; absreloc32: #002 HUNK_BSS: ___argv
00000c62	6000 0176           	bra     $dda                   
00000c66	2479 0000 009c      	movea.l $9c.l, A2              ; absreloc32: #002 HUNK_BSS: ___commandline
00000c6c	2639 0000 0090      	move.l  $90.l, D3              ; absreloc32: #002 HUNK_BSS: ___commandlen
00000c72	2c79 0000 0094      	movea.l $94.l, A6              ; absreloc32: #002 HUNK_BSS: _SysBase
00000c78	2003                	move.l  D3, D0                 
00000c7a	5280                	addq.l  #1, D0                 
00000c7c	7200                	moveq   #$0, D1                
00000c7e	4eae fd54           	jsr     (-$2ac,A6)             
00000c82	23c0 0000 0408      	move.l  D0, $408.l             ; absreloc32: #001 HUNK_DATA: 00000408
00000c88	660a                	bne     $c94                   
00000c8a	4878 0014           	pea     $14.w                  
00000c8e	4eb9 0000 0068      	jsr     $68.l                  ; absreloc32: self: __exit
00000c94	2040                	movea.l D0, A0                 
00000c96	7401                	moveq   #$1, D2                
00000c98	2002                	move.l  D2, D0                 
00000c9a	5280                	addq.l  #1, D0                 
00000c9c	6004                	bra     $ca2                   
00000c9e	528a                	addq.l  #1, A2                 
00000ca0	5383                	subq.l  #1, D3                 
00000ca2	4a83                	tst.l   D3                     
00000ca4	6700 0090           	beq     $d36                   
00000ca8	1212                	move.b  (A2), D1               
00000caa	0c01 0020           	cmpi.b  #$20, D1               
00000cae	67ee                	beq     $c9e                   
00000cb0	0c01 0009           	cmpi.b  #$9, D1                
00000cb4	67e8                	beq     $c9e                   
00000cb6	0c01 000a           	cmpi.b  #$a, D1                
00000cba	67e2                	beq     $c9e                   
00000cbc	4a83                	tst.l   D3                     
00000cbe	6776                	beq     $d36                   
00000cc0	0c01 0022           	cmpi.b  #$22, D1               
00000cc4	663c                	bne     $d02                   
00000cc6	528a                	addq.l  #1, A2                 
00000cc8	5383                	subq.l  #1, D3                 
00000cca	6762                	beq     $d2e                   
00000ccc	1012                	move.b  (A2), D0               
00000cce	0c00 0022           	cmpi.b  #$22, D0               
00000cd2	6728                	beq     $cfc                   
00000cd4	0c00 002a           	cmpi.b  #$2a, D0               
00000cd8	6606                	bne     $ce0                   
00000cda	528a                	addq.l  #1, A2                 
00000cdc	5383                	subq.l  #1, D3                 
00000cde	674e                	beq     $d2e                   
00000ce0	10da                	move.b  (A2)+, (A0)+           
00000ce2	5383                	subq.l  #1, D3                 
00000ce4	6748                	beq     $d2e                   
00000ce6	1012                	move.b  (A2), D0               
00000ce8	0c00 0022           	cmpi.b  #$22, D0               
00000cec	670e                	beq     $cfc                   
00000cee	0c00 002a           	cmpi.b  #$2a, D0               
00000cf2	66ec                	bne     $ce0                   
00000cf4	528a                	addq.l  #1, A2                 
00000cf6	5383                	subq.l  #1, D3                 
00000cf8	66e6                	bne     $ce0                   
00000cfa	6032                	bra     $d2e                   
00000cfc	528a                	addq.l  #1, A2                 
00000cfe	5383                	subq.l  #1, D3                 
00000d00	602c                	bra     $d2e                   
00000d02	0c01 0020           	cmpi.b  #$20, D1               
00000d06	6726                	beq     $d2e                   
00000d08	0c01 0009           	cmpi.b  #$9, D1                
00000d0c	6720                	beq     $d2e                   
00000d0e	0c01 000a           	cmpi.b  #$a, D1                
00000d12	671a                	beq     $d2e                   
00000d14	10da                	move.b  (A2)+, (A0)+           
00000d16	5383                	subq.l  #1, D3                 
00000d18	6714                	beq     $d2e                   
00000d1a	1012                	move.b  (A2), D0               
00000d1c	0c00 0020           	cmpi.b  #$20, D0               
00000d20	670c                	beq     $d2e                   
00000d22	0c00 0009           	cmpi.b  #$9, D0                
00000d26	6706                	beq     $d2e                   
00000d28	0c00 000a           	cmpi.b  #$a, D0                
00000d2c	66e6                	bne     $d14                   
00000d2e	4218                	clr.b   (A0)+                  
00000d30	5282                	addq.l  #1, D2                 
00000d32	6000 ff64           	bra     $c98                   
00000d36	23c2 0000 00a4      	move.l  D2, $a4.l              ; absreloc32: #002 HUNK_BSS: ___argc
00000d3c	2c79 0000 0094      	movea.l $94.l, A6              ; absreloc32: #002 HUNK_BSS: _SysBase
00000d42	e588                	lsl.l   #2, D0                 
00000d44	7201                	moveq   #$1, D1                
00000d46	4841                	swap    D1                     
00000d48	4eae fd54           	jsr     (-$2ac,A6)             
00000d4c	2440                	movea.l D0, A2                 
00000d4e	23ca 0000 008c      	move.l  A2, $8c.l              ; absreloc32: #002 HUNK_BSS: ___argv
00000d54	660a                	bne     $d60                   
00000d56	4878 0014           	pea     $14.w                  
00000d5a	4eb9 0000 0068      	jsr     $68.l                  ; absreloc32: self: __exit
00000d60	2079 0000 0408      	movea.l $408.l, A0             ; absreloc32: #001 HUNK_DATA: 00000408
00000d66	7601                	moveq   #$1, D3                
00000d68	b483                	cmp.l   D3, D2                 
00000d6a	6316                	bls     $d82                   
00000d6c	2003                	move.l  D3, D0                 
00000d6e	e588                	lsl.l   #2, D0                 
00000d70	2588 0800           	move.l  A0, (A2,D0.l)          
00000d74	2003                	move.l  D3, D0                 
00000d76	5280                	addq.l  #1, D0                 
00000d78	4a18                	tst.b   (A0)+                  
00000d7a	66fc                	bne     $d78                   
00000d7c	2600                	move.l  D0, D3                 
00000d7e	b483                	cmp.l   D3, D2                 
00000d80	62ea                	bhi     $d6c                   
00000d82	263c 0000 0100      	move.l  #$100, D3              
00000d88	6012                	bra     $d9c                   
00000d8a	2c79 0000 0094      	movea.l $94.l, A6              ; absreloc32: #002 HUNK_BSS: _SysBase
00000d90	2252                	movea.l (A2), A1               
00000d92	4eae fd4e           	jsr     (-$2b2,A6)             
00000d96	0683 0000 0100      	addi.l  #$100, D3              
00000d9c	2c79 0000 0094      	movea.l $94.l, A6              ; absreloc32: #002 HUNK_BSS: _SysBase
00000da2	2003                	move.l  D3, D0                 
00000da4	7200                	moveq   #$0, D1                
00000da6	4eae fd54           	jsr     (-$2ac,A6)             
00000daa	2480                	move.l  D0, (A2)               
00000dac	671e                	beq     $dcc                   
00000dae	2c79 0000 045c      	movea.l $45c.l, A6             ; absreloc32: #001 HUNK_DATA: ___DOSBase
00000db4	2200                	move.l  D0, D1                 
00000db6	2403                	move.l  D3, D2                 
00000db8	4eae fdc0           	jsr     (-$240,A6)             
00000dbc	2c79 0000 045c      	movea.l $45c.l, A6             ; absreloc32: #001 HUNK_DATA: ___DOSBase
00000dc2	4eae ff7c           	jsr     (-$84,A6)              
00000dc6	7278                	moveq   #$78, D1               
00000dc8	b280                	cmp.l   D0, D1                 
00000dca	67be                	beq     $d8a                   
00000dcc	4a92                	tst.l   (A2)                   
00000dce	660a                	bne     $dda                   
00000dd0	4878 0014           	pea     $14.w                  
00000dd4	4eb9 0000 0068      	jsr     $68.l                  ; absreloc32: self: __exit
00000dda	4cdf 440c           	movem.l (A7)+, D2-D3/A2/A6     
00000dde	4e75                	rts                            
				___exitcommandline:
00000de0	48e7 2022           	movem.l D2/A2/A6, -(A7)        
00000de4	2479 0000 0084      	movea.l $84.l, A2              ; absreloc32: #002 HUNK_BSS: __WBenchMsg
00000dea	b4fc 0000           	cmpa.w  #$0, A2                
00000dee	6736                	beq     $e26                   
00000df0	2239 0000 0410      	move.l  $410.l, D1             ; absreloc32: #001 HUNK_DATA: 00000410
00000df6	670a                	beq     $e02                   
00000df8	2c79 0000 045c      	movea.l $45c.l, A6             ; absreloc32: #001 HUNK_DATA: ___DOSBase
00000dfe	4eae ffdc           	jsr     (-$24,A6)              
00000e02	4aaa 0024           	tst.l   ($24,A2)               
00000e06	675a                	beq     $e62                   
00000e08	2c79 0000 045c      	movea.l $45c.l, A6             ; absreloc32: #001 HUNK_DATA: ___DOSBase
00000e0e	2239 0000 040c      	move.l  $40c.l, D1             ; absreloc32: #001 HUNK_DATA: 0000040c
00000e14	4eae ff82           	jsr     (-$7e,A6)              
00000e18	2c79 0000 045c      	movea.l $45c.l, A6             ; absreloc32: #001 HUNK_DATA: ___DOSBase
00000e1e	2200                	move.l  D0, D1                 
00000e20	4eae ffa6           	jsr     (-$5a,A6)              
00000e24	603c                	bra     $e62                   
00000e26	2439 0000 0408      	move.l  $408.l, D2             ; absreloc32: #001 HUNK_DATA: 00000408
00000e2c	6734                	beq     $e62                   
00000e2e	2479 0000 008c      	movea.l $8c.l, A2              ; absreloc32: #002 HUNK_BSS: ___argv
00000e34	b4fc 0000           	cmpa.w  #$0, A2                
00000e38	671c                	beq     $e56                   
00000e3a	2012                	move.l  (A2), D0               
00000e3c	670c                	beq     $e4a                   
00000e3e	2c79 0000 0094      	movea.l $94.l, A6              ; absreloc32: #002 HUNK_BSS: _SysBase
00000e44	2240                	movea.l D0, A1                 
00000e46	4eae fd4e           	jsr     (-$2b2,A6)             
00000e4a	2c79 0000 0094      	movea.l $94.l, A6              ; absreloc32: #002 HUNK_BSS: _SysBase
00000e50	224a                	movea.l A2, A1                 
00000e52	4eae fd4e           	jsr     (-$2b2,A6)             
00000e56	2c79 0000 0094      	movea.l $94.l, A6              ; absreloc32: #002 HUNK_BSS: _SysBase
00000e5c	2242                	movea.l D2, A1                 
00000e5e	4eae fd4e           	jsr     (-$2b2,A6)             
00000e62	4cdf 4404           	movem.l (A7)+, D2/A2/A6        
00000e66	4e75                	rts                            
				___modsi3:
00000e68	4cef 0003 0004      	movem.l ($4,A7), D0-D1         
00000e6e	610a                	bsr     $e7a                   
00000e70	2001                	move.l  D1, D0                 
00000e72	4e75                	rts                            
				_div:
00000e74	4cef 0003 0004      	movem.l ($4,A7), D0-D1         
00000e7a	2079 0000 0464      	movea.l $464.l, A0             ; absreloc32: #001 HUNK_DATA: ___UtilityBase
00000e80	4ee8 ff6a           	jmp     (-$96,A0)              
				_strcpy:
00000e84	4cef 0101 0004      	movem.l ($4,A7), D0/A0         
00000e8a	2240                	movea.l D0, A1                 
00000e8c	12d8                	move.b  (A0)+, (A1)+           
00000e8e	66fc                	bne     $e8c                   
00000e90	4e75                	rts                            
00000e92	0000 2f3c           	ori.b   #$3c, D0               
00000e96	41c6                	dc.w $41c6; ILLEGAL            
00000e98	4e6d                	move    USP, A5                
00000e9a	2f39 0000 0430      	move.l  $430.l, -(A7)          ; absreloc32: #001 HUNK_DATA: 00000430
00000ea0	4eb9 0000 104c      	jsr     $104c.l                ; absreloc32: self: ___mulsi3
00000ea6	508f                	addq.l  #8, A7                 
00000ea8	0680 0000 3039      	addi.l  #$3039, D0             
00000eae	23c0 0000 0430      	move.l  D0, $430.l             ; absreloc32: #001 HUNK_DATA: 00000430
00000eb4	2f3c 7fff ffff      	move.l  #$7fffffff, -(A7)      
00000eba	2f00                	move.l  D0, -(A7)              
00000ebc	4eb9 0000 0ed4      	jsr     $ed4.l                 ; absreloc32: self: ___umodsi3
00000ec2	508f                	addq.l  #8, A7                 
00000ec4	4e75                	rts                            
00000ec6	4e71                	nop                            
				_srand:
00000ec8	23ef 0004 0000 0430 	move.l  ($4,A7), $430.l        ; absreloc32: #001 HUNK_DATA: 00000430
00000ed0	4e75                	rts                            
00000ed2	4e71                	nop                            
				___umodsi3:
00000ed4	4cef 0003 0004      	movem.l ($4,A7), D0-D1         
00000eda	610a                	bsr     $ee6                   
00000edc	2001                	move.l  D1, D0                 
00000ede	4e75                	rts                            
				___udivsi3:
00000ee0	4cef 0003 0004      	movem.l ($4,A7), D0-D1         
00000ee6	2079 0000 0464      	movea.l $464.l, A0             ; absreloc32: #001 HUNK_DATA: ___UtilityBase
00000eec	4ee8 ff64           	jmp     (-$9c,A0)              
				_bzero:
00000ef0	2f02                	move.l  D2, -(A7)              
00000ef2	206f 0008           	movea.l ($8,A7), A0            
00000ef6	222f 000c           	move.l  ($c,A7), D1            
00000efa	6756                	beq     $f52                   
00000efc	700f                	moveq   #$f, D0                
00000efe	b081                	cmp.l   D1, D0                 
00000f00	644a                	bcc     $f4c                   
00000f02	2408                	move.l  A0, D2                 
00000f04	0802 0000           	btst    #$0, D2                
00000f08	6704                	beq     $f0e                   
00000f0a	4218                	clr.b   (A0)+                  
00000f0c	5381                	subq.l  #1, D1                 
00000f0e	2008                	move.l  A0, D0                 
00000f10	0800 0001           	btst    #$1, D0                
00000f14	6704                	beq     $f1a                   
00000f16	4258                	clr.w   (A0)+                  
00000f18	5581                	subq.l  #2, D1                 
00000f1a	2001                	move.l  D1, D0                 
00000f1c	ea88                	lsr.l   #5, D0                 
00000f1e	741f                	moveq   #$1f, D2               
00000f20	c282                	and.l   D2, D1                 
00000f22	4a80                	tst.l   D0                     
00000f24	6714                	beq     $f3a                   
00000f26	4298                	clr.l   (A0)+                  
00000f28	4298                	clr.l   (A0)+                  
00000f2a	4298                	clr.l   (A0)+                  
00000f2c	4298                	clr.l   (A0)+                  
00000f2e	4298                	clr.l   (A0)+                  
00000f30	4298                	clr.l   (A0)+                  
00000f32	4298                	clr.l   (A0)+                  
00000f34	4298                	clr.l   (A0)+                  
00000f36	5380                	subq.l  #1, D0                 
00000f38	66ec                	bne     $f26                   
00000f3a	2001                	move.l  D1, D0                 
00000f3c	e488                	lsr.l   #2, D0                 
00000f3e	6706                	beq     $f46                   
00000f40	4298                	clr.l   (A0)+                  
00000f42	5380                	subq.l  #1, D0                 
00000f44	66fa                	bne     $f40                   
00000f46	7003                	moveq   #$3, D0                
00000f48	c280                	and.l   D0, D1                 
00000f4a	6706                	beq     $f52                   
00000f4c	4218                	clr.b   (A0)+                  
00000f4e	5381                	subq.l  #1, D1                 
00000f50	66fa                	bne     $f4c                   
00000f52	241f                	move.l  (A7)+, D2              
00000f54	4e75                	rts                            
00000f56	0000 2f02           	ori.b   #$2, D0                
00000f5a	206f 0008           	movea.l ($8,A7), A0            
00000f5e	226f 000c           	movea.l ($c,A7), A1            
00000f62	222f 0010           	move.l  ($10,A7), D1           
00000f66	6700 00cc           	beq     $1034                  
00000f6a	b1c9                	cmpa.l  A1, A0                 
00000f6c	6362                	bls     $fd0                   
00000f6e	700f                	moveq   #$f, D0                
00000f70	b081                	cmp.l   D1, D0                 
00000f72	6454                	bcc     $fc8                   
00000f74	2408                	move.l  A0, D2                 
00000f76	0802 0000           	btst    #$0, D2                
00000f7a	6704                	beq     $f80                   
00000f7c	12d8                	move.b  (A0)+, (A1)+           
00000f7e	5381                	subq.l  #1, D1                 
00000f80	2009                	move.l  A1, D0                 
00000f82	0800 0000           	btst    #$0, D0                
00000f86	663c                	bne     $fc4                   
00000f88	2408                	move.l  A0, D2                 
00000f8a	0802 0001           	btst    #$1, D2                
00000f8e	6704                	beq     $f94                   
00000f90	32d8                	move.w  (A0)+, (A1)+           
00000f92	5581                	subq.l  #2, D1                 
00000f94	2001                	move.l  D1, D0                 
00000f96	ea88                	lsr.l   #5, D0                 
00000f98	741f                	moveq   #$1f, D2               
00000f9a	c282                	and.l   D2, D1                 
00000f9c	4a80                	tst.l   D0                     
00000f9e	6714                	beq     $fb4                   
00000fa0	22d8                	move.l  (A0)+, (A1)+           
00000fa2	22d8                	move.l  (A0)+, (A1)+           
00000fa4	22d8                	move.l  (A0)+, (A1)+           
00000fa6	22d8                	move.l  (A0)+, (A1)+           
00000fa8	22d8                	move.l  (A0)+, (A1)+           
00000faa	22d8                	move.l  (A0)+, (A1)+           
00000fac	22d8                	move.l  (A0)+, (A1)+           
00000fae	22d8                	move.l  (A0)+, (A1)+           
00000fb0	5380                	subq.l  #1, D0                 
00000fb2	66ec                	bne     $fa0                   
00000fb4	2001                	move.l  D1, D0                 
00000fb6	e488                	lsr.l   #2, D0                 
00000fb8	6706                	beq     $fc0                   
00000fba	22d8                	move.l  (A0)+, (A1)+           
00000fbc	5380                	subq.l  #1, D0                 
00000fbe	66fa                	bne     $fba                   
00000fc0	7003                	moveq   #$3, D0                
00000fc2	c280                	and.l   D0, D1                 
00000fc4	4a81                	tst.l   D1                     
00000fc6	676c                	beq     $1034                  
00000fc8	12d8                	move.b  (A0)+, (A1)+           
00000fca	5381                	subq.l  #1, D1                 
00000fcc	66fa                	bne     $fc8                   
00000fce	6064                	bra     $1034                  
00000fd0	d1c1                	adda.l  D1, A0                 
00000fd2	d3c1                	adda.l  D1, A1                 
00000fd4	740f                	moveq   #$f, D2                
00000fd6	b481                	cmp.l   D1, D2                 
00000fd8	6452                	bcc     $102c                  
00000fda	2008                	move.l  A0, D0                 
00000fdc	0800 0000           	btst    #$0, D0                
00000fe0	6704                	beq     $fe6                   
00000fe2	1320                	move.b  -(A0), -(A1)           
00000fe4	5381                	subq.l  #1, D1                 
00000fe6	2409                	move.l  A1, D2                 
00000fe8	0802 0000           	btst    #$0, D2                
00000fec	6642                	bne     $1030                  
00000fee	2008                	move.l  A0, D0                 
00000ff0	0800 0001           	btst    #$1, D0                
00000ff4	6704                	beq     $ffa                   
00000ff6	3320                	move.w  -(A0), -(A1)           
00000ff8	5581                	subq.l  #2, D1                 
00000ffa	2001                	move.l  D1, D0                 
00000ffc	ea88                	lsr.l   #5, D0                 
00000ffe	741f                	moveq   #$1f, D2               
00001000	c282                	and.l   D2, D1                 
00001002	4a80                	tst.l   D0                     
00001004	6714                	beq     $101a                  
00001006	2320                	move.l  -(A0), -(A1)           
00001008	2320                	move.l  -(A0), -(A1)           
0000100a	2320                	move.l  -(A0), -(A1)           
0000100c	2320                	move.l  -(A0), -(A1)           
0000100e	2320                	move.l  -(A0), -(A1)           
00001010	2320                	move.l  -(A0), -(A1)           
00001012	2320                	move.l  -(A0), -(A1)           
00001014	2320                	move.l  -(A0), -(A1)           
00001016	5380                	subq.l  #1, D0                 
00001018	66ec                	bne     $1006                  
0000101a	2001                	move.l  D1, D0                 
0000101c	e488                	lsr.l   #2, D0                 
0000101e	6706                	beq     $1026                  
00001020	2320                	move.l  -(A0), -(A1)           
00001022	5380                	subq.l  #1, D0                 
00001024	66fa                	bne     $1020                  
00001026	7003                	moveq   #$3, D0                
00001028	c280                	and.l   D0, D1                 
0000102a	6004                	bra     $1030                  
0000102c	1320                	move.b  -(A0), -(A1)           
0000102e	5381                	subq.l  #1, D1                 
00001030	4a81                	tst.l   D1                     
00001032	66f8                	bne     $102c                  
00001034	241f                	move.l  (A7)+, D2              
00001036	4e75                	rts                            
				_strcat:
00001038	4cef 0101 0004      	movem.l ($4,A7), D0/A0         
0000103e	2240                	movea.l D0, A1                 
00001040	4a19                	tst.b   (A1)+                  
00001042	66fc                	bne     $1040                  
00001044	5389                	subq.l  #1, A1                 
00001046	12d8                	move.b  (A0)+, (A1)+           
00001048	66fc                	bne     $1046                  
0000104a	4e75                	rts                            
				___mulsi3:
0000104c	4cef 0003 0004      	movem.l ($4,A7), D0-D1         
00001052	2079 0000 0464      	movea.l $464.l, A0             ; absreloc32: #001 HUNK_DATA: ___UtilityBase
00001058	4ee8 ff76           	jmp     (-$8a,A0)              
0000105c	16c0                	move.b  D0, (A3)+              
0000105e	4e75                	rts                            
00001060	4e65                	move    A5, USP                
00001062	6564                	bcs     $10c8                  
00001064	2076 6572 7369 6f6e 2025	movea.l ([$6f6e,A6],$2025), A0 
0000106e	2e31 306c           	move.l  ($6c,A1,D3.w), D7      
00001072	6420                	bcc     $1094                  
00001074	6f66                	ble     $10dc                  
00001076	2025                	move.l  -(A5), D0              
00001078	2e33 3273           	move.l  ($73,A3,D3.w*2), D7    
0000107c	0000 4fef           	ori.b   #$ef, D0               
00001080	ffc0                	dc.w    $ffc0; opcode 1111     
00001082	48e7 0032           	movem.l A2-A3/A6, -(A7)        
00001086	2c79 0000 0094      	movea.l $94.l, A6              ; absreloc32: #002 HUNK_BSS: _SysBase
0000108c	41f9 0000 1060      	lea     $1060.l, A0            ; absreloc32: self: 00001060
00001092	43ef 0050           	lea     ($50,A7), A1           
00001096	45f9 0000 105c      	lea     $105c.l, A2            ; absreloc32: self: 0000105c
0000109c	47ef 000c           	lea     ($c,A7), A3            
000010a0	4eae fdf6           	jsr     (-$20a,A6)             
000010a4	2f0b                	move.l  A3, -(A7)              
000010a6	4eb9 0000 1134      	jsr     $1134.l                ; absreloc32: self: ___request
000010ac	4878 0014           	pea     $14.w                  
000010b0	4eb9 0000 0068      	jsr     $68.l                  ; absreloc32: self: __exit
000010b6	4e71                	nop                            
				___initlibraries:
000010b8	48e7 3032           	movem.l D2-D3/A2-A3/A6, -(A7)  
000010bc	2639 0000 0494      	move.l  $494.l, D3             ; absreloc32: #001 HUNK_DATA: ___oslibversion
000010c2	2439 0000 0000      	move.l  $0.l, D2               ; absreloc32: #001 HUNK_DATA: __sdata
000010c8	47f9 0000 0004      	lea     $4.l, A3               ; absreloc32: #001 HUNK_DATA: 00000004
000010ce	6722                	beq     $10f2                  
000010d0	245b                	movea.l (A3)+, A2              
000010d2	2c79 0000 0094      	movea.l $94.l, A6              ; absreloc32: #002 HUNK_BSS: _SysBase
000010d8	226a 0004           	movea.l ($4,A2), A1            
000010dc	2003                	move.l  D3, D0                 
000010de	4eae fdd8           	jsr     (-$228,A6)             
000010e2	2480                	move.l  D0, (A2)               
000010e4	6608                	bne     $10ee                  
000010e6	2f2a 0004           	move.l  ($4,A2), -(A7)         
000010ea	2f03                	move.l  D3, -(A7)              
000010ec	6190                	bsr     $107e                  
000010ee	5382                	subq.l  #1, D2                 
000010f0	66de                	bne     $10d0                  
000010f2	4cdf 4c0c           	movem.l (A7)+, D2-D3/A2-A3/A6  
000010f6	4e75                	rts                            
				___exitlibraries:
000010f8	48e7 2022           	movem.l D2/A2/A6, -(A7)        
000010fc	2439 0000 0000      	move.l  $0.l, D2               ; absreloc32: #001 HUNK_DATA: __sdata
00001102	45f9 0000 0004      	lea     $4.l, A2               ; absreloc32: #001 HUNK_DATA: 00000004
00001108	6716                	beq     $1120                  
0000110a	205a                	movea.l (A2)+, A0              
0000110c	2010                	move.l  (A0), D0               
0000110e	670c                	beq     $111c                  
00001110	2c79 0000 0094      	movea.l $94.l, A6              ; absreloc32: #002 HUNK_BSS: _SysBase
00001116	2240                	movea.l D0, A1                 
00001118	4eae fe62           	jsr     (-$19e,A6)             
0000111c	5382                	subq.l  #1, D2                 
0000111e	66ea                	bne     $110a                  
00001120	4cdf 4404           	movem.l (A7)+, D2/A2/A6        
00001124	4e75                	rts                            
00001126	0000 7000           	ori.b   #$0, D0                
0000112a	4e75                	rts                            
0000112c	4e71                	nop                            
0000112e	0000 4f6b           	ori.b   #$6b, D0               
00001132	0000 48e7           	ori.b   #$e7, D0               
00001136	3832 2c78           	move.w  ($78,A2,D2.l*4), D4    
0000113a	0004 93c9           	ori.b   #$c9, D4               
0000113e	4eae feda           	jsr     (-$126,A6)             
00001142	2240                	movea.l D0, A1                 
00001144	72ff                	moveq   #-$1, D1               
00001146	b2a9 00b8           	cmp.l   ($b8,A1), D1           
0000114a	673e                	beq     $118a                  
0000114c	43f9 0000 04c8      	lea     $4c8.l, A1             ; absreloc32: #001 HUNK_DATA: ___intuitionname
00001152	7000                	moveq   #$0, D0                
00001154	4eae fdd8           	jsr     (-$228,A6)             
00001158	2800                	move.l  D0, D4                 
0000115a	672e                	beq     $118a                  
0000115c	47f9 0000 0480      	lea     $480.l, A3             ; absreloc32: #001 HUNK_DATA: 00000480
00001162	43f9 0000 046c      	lea     $46c.l, A1             ; absreloc32: #001 HUNK_DATA: 0000046c
00001168	95ca                	suba.l  A2, A2                 
0000116a	236f 001c 000c      	move.l  ($1c,A7), ($c,A1)      
00001170	91c8                	suba.l  A0, A0                 
00001172	7000                	moveq   #$0, D0                
00001174	7200                	moveq   #$0, D1                
00001176	7428                	moveq   #$28, D2               
00001178	e94a                	lsl.w   #4, D2                 
0000117a	7648                	moveq   #$48, D3               
0000117c	c98e                	exg     D4, A6                 
0000117e	4eae fea4           	jsr     (-$15c,A6)             
00001182	224e                	movea.l A6, A1                 
00001184	2c44                	movea.l D4, A6                 
00001186	4eae fe62           	jsr     (-$19e,A6)             
0000118a	4cdf 4c1c           	movem.l (A7)+, D2-D4/A2-A3/A6  
0000118e	4e75                	rts                            

	#001  DATA   size 000004f8  alloc size 000004f8  file header @000016b8  data @000016c0  
		   reloc  absreloc32 #3
			To Segment #0:   10 entries
			To Segment #1:   12 entries
			To Segment #2:    1 entries
		  symbol  #24
			0000044c  _GadToolsBase                     
			00000000  ___LIB_LIST__                     
			000004e8  ___utilityname                    
			000004c8  ___intuitionname                  
			00000414  ___stdiowin                       
			000004a0  ___graphicsname                   
			0000001c  ___EXIT_LIST__                    
			00000034  ___INIT_LIST__                    
			00000464  ___UtilityBase                    
			00000350  _font_topaz8                      
			000003fa  _gadget_handles                   
			000004f8  __edata                           
			00000494  ___oslibversion                   
			000004dc  ___dosname                        
			000004b4  ___gadtoolsname                   
			00000000  __sdata                           
			000003ac  _enc_ch                           
			00000402  _wnd                              
			0000045c  ___DOSBase                        
			00000358  _gadgets                          
			00000444  _GfxBase                          
			00000454  _IntuitionBase                    
			00000058  _retrozeit_img_data               
			000003d3  _enc_idx                          
	#002  BSS    size 000000a8  alloc size 000000a8  file header @00001e38  
		  symbol  #11
			00000084  __WBenchMsg                       
			00000088  ___cpucheck                       
			0000008c  ___argv                           
			000000a8  __end                             
			00000090  ___commandlen                     
			00000000  __bss_start                       
			00000094  _SysBase                          
			00000098  ___SaveSP                         
			0000009c  ___commandline                    
			000000a0  ___env                            
			000000a4  ___argc
